target datalayout = "e-m:e-p270:32:32-p271:32:32-p272:64:64-i64:64-i128:128-f80:128-n8:16:32:64-S128"
target triple = "x86_64-pc-linux-gnu"

%struct.Gia_ParFra_t_ = type { i32, i32, i32, i32, i32, i32 }
%struct.timespec = type { i64, i64 }

@.str.5 = private unnamed_addr constant [5 x i8] c"Time\00", align 1
@.str.13 = private unnamed_addr constant [5 x i8] c"%s =\00", align 1
@.str.14 = private unnamed_addr constant [11 x i8] c"%9.2f sec\0A\00", align 1

; Function Attrs: inlinehint nounwind uwtable
define internal void @Abc_PrintTime(i32 noundef %0, ptr noundef %1, i64 noundef %2) #1 {
  %4 = alloca i32, align 4
  %5 = alloca ptr, align 8
  %6 = alloca i64, align 8
  store i32 %0, ptr %4, align 4, !tbaa !10
  store ptr %1, ptr %5, align 8, !tbaa !46
  store i64 %2, ptr %6, align 8, !tbaa !64
  %7 = load ptr, ptr %5, align 8, !tbaa !46
  call void (i32, ptr, ...) @Abc_Print(i32 noundef 1, ptr noundef @.str.13, ptr noundef %7)
  %8 = load i64, ptr %6, align 8, !tbaa !64
  %9 = sitofp i64 %8 to double
  %10 = fmul double 1.000000e+00, %9
  %11 = fdiv double %10, 1.000000e+06
  call void (i32, ptr, ...) @Abc_Print(i32 noundef 1, ptr noundef @.str.14, double noundef %11)
  ret void
}

; Function Attrs: inlinehint nounwind uwtable
define internal i64 @Abc_Clock() #1 {
  %1 = alloca i64, align 8
  %2 = alloca %struct.timespec, align 8
  %3 = alloca i32, align 4
  %4 = alloca i64, align 8
  call void @llvm.lifetime.start.p0(i64 16, ptr %2) #12
  %5 = call i32 @clock_gettime(i32 noundef 1, ptr noundef %2) #12
  %6 = icmp slt i32 %5, 0
  br i1 %6, label %7, label %8

7:                                                ; preds = %0
  store i64 -1, ptr %1, align 8
  store i32 1, ptr %3, align 4
  br label %19

8:                                                ; preds = %0
  call void @llvm.lifetime.start.p0(i64 8, ptr %4) #12
  %9 = getelementptr inbounds nuw %struct.timespec, ptr %2, i32 0, i32 0
  %10 = load i64, ptr %9, align 8, !tbaa !149
  %11 = mul nsw i64 %10, 1000000
  store i64 %11, ptr %4, align 8, !tbaa !64
  %12 = getelementptr inbounds nuw %struct.timespec, ptr %2, i32 0, i32 1
  %13 = load i64, ptr %12, align 8, !tbaa !151
  %14 = mul nsw i64 %13, 1000000
  %15 = sdiv i64 %14, 1000000000
  %16 = load i64, ptr %4, align 8, !tbaa !64
  %17 = add nsw i64 %16, %15
  store i64 %17, ptr %4, align 8, !tbaa !64
  %18 = load i64, ptr %4, align 8, !tbaa !64
  store i64 %18, ptr %1, align 8
  store i32 1, ptr %3, align 4
  call void @llvm.lifetime.end.p0(i64 8, ptr %4) #12
  br label %19

19:                                               ; preds = %8, %7
  call void @llvm.lifetime.end.p0(i64 16, ptr %2) #12
  %20 = load i64, ptr %1, align 8
  ret i64 %20
}

; Function Attrs: nounwind uwtable
define ptr @Gia_ManFrames2(ptr noundef %0, ptr noundef %1) #0 {
  %3 = alloca ptr, align 8
  %4 = alloca ptr, align 8
  %5 = alloca ptr, align 8
  %6 = alloca i64, align 8
  store ptr %0, ptr %3, align 8, !tbaa !3
  store ptr %1, ptr %4, align 8, !tbaa !62
  call void @llvm.lifetime.start.p0(i64 8, ptr %5) #12
  call void @llvm.lifetime.start.p0(i64 8, ptr %6) #12
  %7 = call i64 @Abc_Clock()
  store i64 %7, ptr %6, align 8, !tbaa !64
  %8 = load ptr, ptr %3, align 8, !tbaa !3
  %9 = load ptr, ptr %4, align 8, !tbaa !62
  %10 = call ptr @Gia_ManUnroll(ptr noundef %8, ptr noundef %9)
  store ptr %10, ptr %5, align 8, !tbaa !3
  %11 = load ptr, ptr %4, align 8, !tbaa !62
  %12 = getelementptr inbounds nuw %struct.Gia_ParFra_t_, ptr %11, i32 0, i32 5
  %13 = load i32, ptr %12, align 4, !tbaa !82
  %14 = icmp ne i32 %13, 0
  br i1 %14, label %15, label %19

15:                                               ; preds = %2
  %16 = call i64 @Abc_Clock()
  %17 = load i64, ptr %6, align 8, !tbaa !64
  %18 = sub nsw i64 %16, %17
  call void @Abc_PrintTime(i32 noundef 1, ptr noundef @.str.5, i64 noundef %18)
  br label %19

19:                                               ; preds = %15, %2
  %20 = load ptr, ptr %5, align 8, !tbaa !3
  call void @llvm.lifetime.end.p0(i64 8, ptr %6) #12
  call void @llvm.lifetime.end.p0(i64 8, ptr %5) #12
  ret ptr %20
}