; Function Attrs: nounwind uwtable
define ptr @Gia_ManFrames2(ptr noundef %0, ptr noundef %1) local_unnamed_addr #0 {
  %3 = alloca %struct.timespec, align 8
  %4 = alloca %struct.timespec, align 8
  call void @llvm.lifetime.start.p0(i64 16, ptr nonnull %4) #23
  %5 = call i32 @clock_gettime(i32 noundef 1, ptr noundef nonnull %4) #23
  %6 = icmp slt i32 %5, 0
  br i1 %6, label %Abc_Clock.exit, label %7

7:                                                ; preds = %2
  %8 = load i64, ptr %4, align 8, !tbaa !55
  %.neg6 = mul i64 %8, -1000000
  %9 = getelementptr inbounds nuw i8, ptr %4, i64 8
  %10 = load i64, ptr %9, align 8, !tbaa !57
  %.neg = sdiv i64 %10, -1000
  %.neg7 = add i64 %.neg, %.neg6
  br label %Abc_Clock.exit

Abc_Clock.exit:                                   ; preds = %2, %7
  %.0.i.neg = phi i64 [ %.neg7, %7 ], [ 1, %2 ]
  call void @llvm.lifetime.end.p0(i64 16, ptr nonnull %4) #23
  %11 = call ptr @Gia_ManUnroll(ptr noundef %0, ptr noundef %1)
  %12 = getelementptr inbounds nuw i8, ptr %1, i64 20
  %13 = load i32, ptr %12, align 4, !tbaa !76
  %.not = icmp eq i32 %13, 0
  br i1 %.not, label %27, label %14

14:                                               ; preds = %Abc_Clock.exit
  call void @llvm.lifetime.start.p0(i64 16, ptr nonnull %3) #23
  %15 = call i32 @clock_gettime(i32 noundef 1, ptr noundef nonnull %3) #23
  %16 = icmp slt i32 %15, 0
  br i1 %16, label %Abc_Clock.exit5, label %17

17:                                               ; preds = %14
  %18 = load i64, ptr %3, align 8, !tbaa !55
  %19 = mul nsw i64 %18, 1000000
  %20 = getelementptr inbounds nuw i8, ptr %3, i64 8
  %21 = load i64, ptr %20, align 8, !tbaa !57
  %22 = sdiv i64 %21, 1000
  %23 = add nsw i64 %22, %19
  br label %Abc_Clock.exit5

Abc_Clock.exit5:                                  ; preds = %14, %17
  %.0.i4 = phi i64 [ %23, %17 ], [ -1, %14 ]
  call void @llvm.lifetime.end.p0(i64 16, ptr nonnull %3) #23
  %24 = add i64 %.0.i4, %.0.i.neg
  call void (i32, ptr, ...) @Abc_Print(i32 poison, ptr noundef nonnull @.str.13, ptr noundef nonnull @.str.5)
  %25 = sitofp i64 %24 to double
  %26 = fdiv double %25, 1.000000e+06
  call void (i32, ptr, ...) @Abc_Print(i32 poison, ptr noundef nonnull @.str.14, double noundef %26)
  br label %27

27:                                               ; preds = %Abc_Clock.exit5, %Abc_Clock.exit
  ret ptr %11
}